target datalayout = "e-m:e-p270:32:32-p271:32:32-p272:64:64-i64:64-i128:128-f80:128-n8:16:32:64-S128"
target triple = "x86_64-pc-linux-gnu"

%class.FakeRttiSupport = type <{ i64, i32, [4 x i8] }>
%class.ShenandoahBarrierSet = type { %class.BarrierSet, ptr, %"class.BufferNode::Allocator", %class.ShenandoahSATBMarkQueueSet }
%class.BarrierSet = type { ptr, %class.FakeRttiSupport, ptr, ptr, ptr, ptr, ptr }
%"class.BufferNode::Allocator" = type { %"class.BufferNode::AllocatorConfig", %class.FreeListAllocator }
%"class.BufferNode::AllocatorConfig" = type { %class.FreeListConfig, i64 }
%class.FreeListConfig = type { ptr, i64 }
%class.FreeListAllocator = type { ptr, [120 x i8], i64, [120 x i8], %class.LockFreeStack, [120 x i8], i8, [127 x i8], i32, [2 x %"class.FreeListAllocator::PendingList"] }
%class.LockFreeStack = type { ptr }
%"class.FreeListAllocator::PendingList" = type { ptr, ptr, i64 }
%class.ShenandoahSATBMarkQueueSet = type { %class.SATBMarkQueueSet.base, [7 x i8] }
%class.SATBMarkQueueSet.base = type <{ %class.PtrQueueSet, [128 x i8], %class.PaddedEnd, i64, i64, i64, i8, [96 x i8] }>
%class.PtrQueueSet = type { ptr, ptr }
%class.PaddedEnd = type { %class.PaddedEndImpl }
%class.PaddedEndImpl = type { %class.LockFreeStack.0, [120 x i8] }
%class.LockFreeStack.0 = type { ptr }
%class.ShenandoahThreadLocalData = type { i8, i8, i8, [5 x i8], %class.SATBMarkQueue, ptr, i64, double }
%class.SATBMarkQueue = type <{ %class.PtrQueue, i8, [7 x i8] }>
%class.PtrQueue = type { i64, ptr }
%class.SATBMarkQueueSet = type <{ %class.PtrQueueSet, [128 x i8], %class.PaddedEnd, i64, i64, i64, i8, [96 x i8], [7 x i8] }>
%class.Thread = type { %class.ThreadShadow.base, i64, [43 x i64], ptr, ptr, i32, ptr, i64, i64, %class.ThreadLocalAllocBuffer, i64, %class.ThreadHeapSampler, %class.ThreadStatisticalInfo, %class.JfrThreadLocal, ptr, ptr, ptr, ptr, ptr, ptr, i64, i32, i32, ptr, i32, i32, i32, i32, i8, ptr }
%class.ThreadShadow.base = type <{ ptr, ptr, ptr, i32 }>
%class.ThreadLocalAllocBuffer = type <{ ptr, ptr, ptr, ptr, ptr, i64, i64, i64, i64, i32, i32, i32, i32, i64, %class.AdaptiveWeightedAverage, [4 x i8] }>
%class.AdaptiveWeightedAverage = type { float, i32, i32, i8, float }
%class.ThreadHeapSampler = type { i64 }
%class.ThreadStatisticalInfo = type { i64, i64 }
%class.JfrThreadLocal = type <{ ptr, ptr, ptr, ptr, ptr, ptr, ptr, ptr, ptr, ptr, %class.RefCountHandle, i64, i64, i64, i64, i64, i64, i64, i64, i64, i64, i64, i32, i32, i32, i16, i8, i8, i8, i8, i8, [5 x i8] }>
%class.RefCountHandle = type { ptr }

@ShenandoahStackWatermarkBarrier = external global i8, align 1

; Function Attrs: mustprogress nounwind uwtable
define linkonce_odr hidden noundef ptr @_ZN6Thread7gc_dataI25ShenandoahThreadLocalDataEEPT_v(ptr noundef nonnull align 8 dereferenceable(888) %0) #1 comdat align 2 {
  %2 = alloca ptr, align 8
  store ptr %0, ptr %2, align 8
  %3 = load ptr, ptr %2, align 8
  %4 = getelementptr inbounds %class.Thread, ptr %3, i32 0, i32 2
  ret ptr %4
}

; Function Attrs: mustprogress nounwind uwtable
define linkonce_odr hidden noundef ptr @_ZN25ShenandoahThreadLocalData4dataEP6Thread(ptr noundef %0) #1 comdat align 2 {
  %2 = alloca ptr, align 8
  store ptr %0, ptr %2, align 8
  %3 = load ptr, ptr %2, align 8
  %4 = call noundef ptr @_ZN6Thread7gc_dataI25ShenandoahThreadLocalDataEEPT_v(ptr noundef nonnull align 8 dereferenceable(888) %3)
  ret ptr %4
}

; Function Attrs: mustprogress nounwind uwtable
define linkonce_odr hidden noundef ptr @_ZN10JavaThread4castEP6Thread(ptr noundef %0) #1 comdat align 2 {
  %2 = alloca ptr, align 8
  store ptr %0, ptr %2, align 8
  %3 = load ptr, ptr %2, align 8
  ret ptr %3
}

; Function Attrs: mustprogress nounwind uwtable
define linkonce_odr hidden void @_ZN6Thread32set_nmethod_disarmed_guard_valueEi(ptr noundef nonnull align 8 dereferenceable(888) %0, i32 noundef %1) #1 comdat align 2 {
  %3 = alloca ptr, align 8
  %4 = alloca i32, align 4
  store ptr %0, ptr %3, align 8
  store i32 %1, ptr %4, align 4
  %5 = load ptr, ptr %3, align 8
  %6 = load i32, ptr %4, align 4
  %7 = zext i32 %6 to i64
  %8 = getelementptr inbounds %class.Thread, ptr %5, i32 0, i32 1
  store i64 %7, ptr %8, align 8
  ret void
}

; Function Attrs: mustprogress nounwind uwtable
define linkonce_odr hidden noundef ptr @_ZN10BarrierSet19barrier_set_nmethodEv(ptr noundef nonnull align 8 dereferenceable(64) %0) #1 comdat align 2 {
  %2 = alloca ptr, align 8
  store ptr %0, ptr %2, align 8
  %3 = load ptr, ptr %2, align 8
  %4 = getelementptr inbounds %class.BarrierSet, ptr %3, i32 0, i32 5
  %5 = load ptr, ptr %4, align 8
  ret ptr %5
}

; Function Attrs: mustprogress nounwind uwtable
define linkonce_odr hidden void @_ZN25ShenandoahThreadLocalData16initialize_gclabEP6Thread(ptr noundef %0) #1 comdat align 2 {
  %2 = alloca i64, align 8
  %3 = alloca i8, align 1
  %4 = alloca i64, align 8
  %5 = alloca ptr, align 8
  store ptr %0, ptr %5, align 8
  store i64 128, ptr %4, align 8
  %6 = load i64, ptr %4, align 8
  store i64 %6, ptr %2, align 8
  store i8 5, ptr %3, align 1
  %7 = load i64, ptr %2, align 8
  %8 = load i8, ptr %3, align 1
  %9 = call noundef ptr @_Z12AllocateHeapm8MEMFLAGSN17AllocFailStrategy13AllocFailEnumE(i64 noundef %7, i8 noundef zeroext %8, i32 noundef 0) #9
  %10 = call noundef i64 @_ZN4PLAB8min_sizeEv()
  call void @_ZN4PLABC1Em(ptr noundef nonnull align 8 dereferenceable(128) %9, i64 noundef %10)
  %11 = load ptr, ptr %5, align 8
  %12 = call noundef ptr @_ZN25ShenandoahThreadLocalData4dataEP6Thread(ptr noundef %11)
  %13 = getelementptr inbounds %class.ShenandoahThreadLocalData, ptr %12, i32 0, i32 5
  store ptr %9, ptr %13, align 8
  %14 = load ptr, ptr %5, align 8
  %15 = call noundef ptr @_ZN25ShenandoahThreadLocalData4dataEP6Thread(ptr noundef %14)
  %16 = getelementptr inbounds %class.ShenandoahThreadLocalData, ptr %15, i32 0, i32 6
  store i64 0, ptr %16, align 8
  ret void
}

; Function Attrs: mustprogress nounwind uwtable
define linkonce_odr hidden void @_ZN25ShenandoahThreadLocalData12set_gc_stateEP6Threadc(ptr noundef %0, i8 noundef signext %1) #1 comdat align 2 {
  %3 = alloca ptr, align 8
  %4 = alloca i8, align 1
  store ptr %0, ptr %3, align 8
  store i8 %1, ptr %4, align 1
  %5 = load i8, ptr %4, align 1
  %6 = load ptr, ptr %3, align 8
  %7 = call noundef ptr @_ZN25ShenandoahThreadLocalData4dataEP6Thread(ptr noundef %6)
  %8 = getelementptr inbounds %class.ShenandoahThreadLocalData, ptr %7, i32 0, i32 0
  store i8 %5, ptr %8, align 8
  ret void
}

; Function Attrs: mustprogress nounwind uwtable
define linkonce_odr hidden void @_ZN13SATBMarkQueue10set_activeEb(ptr noundef nonnull align 8 dereferenceable(17) %0, i1 noundef zeroext %1) #1 comdat align 2 {
  %3 = alloca ptr, align 8
  %4 = alloca i8, align 1
  store ptr %0, ptr %3, align 8
  %5 = zext i1 %1 to i8
  store i8 %5, ptr %4, align 1
  %6 = load ptr, ptr %3, align 8
  %7 = load i8, ptr %4, align 1
  %8 = trunc i8 %7 to i1
  %9 = getelementptr inbounds %class.SATBMarkQueue, ptr %6, i32 0, i32 1
  %10 = zext i1 %8 to i8
  store i8 %10, ptr %9, align 8
  ret void
}

; Function Attrs: mustprogress nounwind uwtable
define linkonce_odr hidden noundef zeroext i1 @_ZNK16SATBMarkQueueSet9is_activeEv(ptr noundef nonnull align 8 dereferenceable(393) %0) #1 comdat align 2 {
  %2 = alloca ptr, align 8
  store ptr %0, ptr %2, align 8
  %3 = load ptr, ptr %2, align 8
  %4 = getelementptr inbounds %class.SATBMarkQueueSet, ptr %3, i32 0, i32 6
  %5 = load i8, ptr %4, align 8
  %6 = trunc i8 %5 to i1
  ret i1 %6
}

; Function Attrs: mustprogress nounwind uwtable
define linkonce_odr hidden noundef nonnull align 8 dereferenceable(17) ptr @_ZN25ShenandoahThreadLocalData15satb_mark_queueEP6Thread(ptr noundef %0) #1 comdat align 2 {
  %2 = alloca ptr, align 8
  store ptr %0, ptr %2, align 8
  %3 = load ptr, ptr %2, align 8
  %4 = call noundef ptr @_ZN25ShenandoahThreadLocalData4dataEP6Thread(ptr noundef %3)
  %5 = getelementptr inbounds %class.ShenandoahThreadLocalData, ptr %4, i32 0, i32 4
  ret ptr %5
}

; Function Attrs: mustprogress nounwind uwtable
define hidden void @_ZN20ShenandoahBarrierSet16on_thread_attachEP6Thread(ptr noundef nonnull align 8 dereferenceable(1064) %0, ptr noundef %1) unnamed_addr #1 align 2 {
  %3 = alloca i64, align 8
  %4 = alloca i8, align 1
  %5 = alloca i64, align 8
  %6 = alloca ptr, align 8
  %7 = alloca ptr, align 8
  %8 = alloca ptr, align 8
  %9 = alloca ptr, align 8
  %10 = alloca ptr, align 8
  %11 = alloca ptr, align 8
  store ptr %0, ptr %6, align 8
  store ptr %1, ptr %7, align 8
  %12 = load ptr, ptr %6, align 8
  %13 = load ptr, ptr %7, align 8
  %14 = call noundef nonnull align 8 dereferenceable(17) ptr @_ZN25ShenandoahThreadLocalData15satb_mark_queueEP6Thread(ptr noundef %13)
  store ptr %14, ptr %8, align 8
  %15 = load ptr, ptr %8, align 8
  %16 = getelementptr inbounds %class.ShenandoahBarrierSet, ptr %12, i32 0, i32 3
  %17 = call noundef zeroext i1 @_ZNK16SATBMarkQueueSet9is_activeEv(ptr noundef nonnull align 8 dereferenceable(393) %16)
  call void @_ZN13SATBMarkQueue10set_activeEb(ptr noundef nonnull align 8 dereferenceable(17) %15, i1 noundef zeroext %17)
  %18 = load ptr, ptr %7, align 8
  %19 = load ptr, ptr %18, align 8
  %20 = getelementptr inbounds ptr, ptr %19, i64 7
  %21 = load ptr, ptr %20, align 8
  %22 = call noundef zeroext i1 %21(ptr noundef nonnull align 8 dereferenceable(888) %18)
  br i1 %22, label %23, label %50

23:                                               ; preds = %2
  %24 = load ptr, ptr %7, align 8
  %25 = getelementptr inbounds %class.ShenandoahBarrierSet, ptr %12, i32 0, i32 1
  %26 = load ptr, ptr %25, align 8
  %27 = call noundef signext i8 @_ZNK14ShenandoahHeap8gc_stateEv(ptr noundef nonnull align 8 dereferenceable(2657) %26)
  call void @_ZN25ShenandoahThreadLocalData12set_gc_stateEP6Threadc(ptr noundef %24, i8 noundef signext %27)
  %28 = load ptr, ptr %7, align 8
  call void @_ZN25ShenandoahThreadLocalData16initialize_gclabEP6Thread(ptr noundef %28)
  %29 = call noundef ptr @_ZN10BarrierSet19barrier_set_nmethodEv(ptr noundef nonnull align 8 dereferenceable(64) %12)
  store ptr %29, ptr %9, align 8
  %30 = load ptr, ptr %9, align 8
  %31 = icmp ne ptr %30, null
  br i1 %31, label %32, label %36

32:                                               ; preds = %23
  %33 = load ptr, ptr %7, align 8
  %34 = load ptr, ptr %9, align 8
  %35 = call noundef i32 @_ZNK17BarrierSetNMethod20disarmed_guard_valueEv(ptr noundef nonnull align 8 dereferenceable(12) %34)
  call void @_ZN6Thread32set_nmethod_disarmed_guard_valueEi(ptr noundef nonnull align 8 dereferenceable(888) %33, i32 noundef %35)
  br label %36

36:                                               ; preds = %32, %23
  %37 = load i8, ptr @ShenandoahStackWatermarkBarrier, align 1
  %38 = trunc i8 %37 to i1
  br i1 %38, label %39, label %49

39:                                               ; preds = %36
  %40 = load ptr, ptr %7, align 8
  %41 = call noundef ptr @_ZN10JavaThread4castEP6Thread(ptr noundef %40)
  store ptr %41, ptr %10, align 8
  store i64 320, ptr %5, align 8
  %42 = load i64, ptr %5, align 8
  store i64 %42, ptr %3, align 8
  store i8 2, ptr %4, align 1
  %43 = load i64, ptr %3, align 8
  %44 = load i8, ptr %4, align 1
  %45 = call noundef ptr @_Z12AllocateHeapm8MEMFLAGSN17AllocFailStrategy13AllocFailEnumE(i64 noundef %43, i8 noundef zeroext %44, i32 noundef 0) #9
  %46 = load ptr, ptr %10, align 8
  call void @_ZN24ShenandoahStackWatermarkC1EP10JavaThread(ptr noundef nonnull align 8 dereferenceable(320) %45, ptr noundef %46)
  store ptr %45, ptr %11, align 8
  %47 = load ptr, ptr %10, align 8
  %48 = load ptr, ptr %11, align 8
  call void @_ZN17StackWatermarkSet13add_watermarkEP10JavaThreadP14StackWatermark(ptr noundef %47, ptr noundef %48)
  br label %49

49:                                               ; preds = %39, %36
  br label %50

50:                                               ; preds = %49, %2
  ret void
}