; Function Attrs: mustprogress nounwind uwtable
define hidden void @_ZN20ShenandoahBarrierSet16on_thread_attachEP6Thread(ptr nocapture noundef nonnull readonly align 8 dereferenceable(1064) %0, ptr noundef %1) unnamed_addr #0 align 2 {
  %3 = getelementptr inbounds i8, ptr %0, i64 960
  %4 = load i8, ptr %3, align 8
  %5 = and i8 %4, 1
  %6 = getelementptr inbounds i8, ptr %1, i64 64
  store i8 %5, ptr %6, align 8
  %7 = load ptr, ptr %1, align 8
  %8 = getelementptr inbounds i8, ptr %7, i64 56
  %9 = load ptr, ptr %8, align 8
  %10 = tail call noundef zeroext i1 %9(ptr noundef nonnull align 8 dereferenceable(888) %1) #12
  br i1 %10, label %11, label %31

11:                                               ; preds = %2
  %12 = getelementptr inbounds i8, ptr %0, i64 64
  %13 = load ptr, ptr %12, align 8
  %14 = tail call noundef signext i8 @_ZNK14ShenandoahHeap8gc_stateEv(ptr noundef nonnull align 8 dereferenceable(2657) %13) #12
  %15 = getelementptr inbounds i8, ptr %1, i64 40
  store i8 %14, ptr %15, align 8
  %16 = tail call noundef ptr @_Z12AllocateHeapm8MEMFLAGSN17AllocFailStrategy13AllocFailEnumE(i64 noundef 128, i8 noundef zeroext 5, i32 noundef 0) #12
  %17 = tail call noundef i64 @_ZN4PLAB8min_sizeEv() #12
  tail call void @_ZN4PLABC1Em(ptr noundef nonnull align 8 dereferenceable(128) %16, i64 noundef %17) #12
  %18 = getelementptr inbounds i8, ptr %1, i64 72
  store ptr %16, ptr %18, align 8
  %19 = getelementptr inbounds i8, ptr %1, i64 80
  store i64 0, ptr %19, align 8
  %20 = getelementptr inbounds i8, ptr %0, i64 48
  %21 = load ptr, ptr %20, align 8
  %.not = icmp eq ptr %21, null
  br i1 %.not, label %26, label %22

22:                                               ; preds = %11
  %23 = tail call noundef i32 @_ZNK17BarrierSetNMethod20disarmed_guard_valueEv(ptr noundef nonnull align 8 dereferenceable(12) %21) #12
  %24 = zext i32 %23 to i64
  %25 = getelementptr inbounds i8, ptr %1, i64 32
  store i64 %24, ptr %25, align 8
  br label %26

26:                                               ; preds = %22, %11
  %27 = load i8, ptr @ShenandoahStackWatermarkBarrier, align 1
  %28 = trunc i8 %27 to i1
  br i1 %28, label %29, label %31

29:                                               ; preds = %26
  %30 = tail call noundef ptr @_Z12AllocateHeapm8MEMFLAGSN17AllocFailStrategy13AllocFailEnumE(i64 noundef 320, i8 noundef zeroext 2, i32 noundef 0) #12
  tail call void @_ZN24ShenandoahStackWatermarkC1EP10JavaThread(ptr noundef nonnull align 8 dereferenceable(320) %30, ptr noundef nonnull %1) #12
  tail call void @_ZN17StackWatermarkSet13add_watermarkEP10JavaThreadP14StackWatermark(ptr noundef nonnull %1, ptr noundef nonnull %30) #12
  br label %31

31:                                               ; preds = %26, %29, %2
  ret void
}